; Function Attrs: mustprogress nofree norecurse nosync nounwind willreturn memory(read, inaccessiblemem: none) uwtable
define dso_local noundef nonnull align 8 dereferenceable(32) ptr @_ZNK8cmTarget15GetTemplateNameB5cxx11Ev(ptr noundef nonnull readonly align 8 captures(none) dereferenceable(8) %0) local_unnamed_addr #6 align 2 {
  br label %tailrecurse

tailrecurse:                                      ; preds = %tailrecurse, %1
  %.tr = phi ptr [ %0, %1 ], [ %4, %tailrecurse ]
  %2 = load ptr, ptr %.tr, align 8, !tbaa !22
  %3 = getelementptr inbounds nuw i8, ptr %2, i64 88
  %4 = load ptr, ptr %3, align 8, !tbaa !218
  %.not = icmp eq ptr %4, null
  br i1 %.not, label %5, label %tailrecurse

5:                                                ; preds = %tailrecurse
  %6 = getelementptr inbounds nuw i8, ptr %2, i64 96
  ret ptr %6
}